(dp0
S'meta'
p1
(lp2
(dp3
S'category'
p4
S''
p5
sasS'name'
p6
S'BASE'
p7
sS'nid'
p8
S'1'
p9
sS'children'
p10
(lp11
(dp12
g1
(lp13
(dp14
g4
g5
sasg6
S'visual masking'
p15
sg8
S'trm_4a3fd79d0b492'
p16
sg10
(lp17
(dp18
g1
(lp19
(dp20
g4
g5
sasg6
S'lateral masking'
p21
sg8
S'trm_502bdc6bdaa2b'
p22
sg10
(lp23
sa(dp24
g1
(lp25
(dp26
g4
g5
sasg6
S'crowding'
p27
sg8
S'trm_502c139d5ed78'
p28
sg10
(lp29
sasa(dp30
g1
(lp31
(dp32
g4
g5
sasg6
S'unconscious process'
p33
sg8
S'trm_4a3fd79d0b406'
p34
sg10
(lp35
(dp36
g1
(lp37
(dp38
g4
g5
sasg6
S'unconscious perception'
p39
sg8
S'trm_4feb44e5ae25b'
p40
sg10
(lp41
sasa(dp42
g1
(lp43
(dp44
g4
g5
sasg6
S'task difficulty'
p45
sg8
S'trm_557b4add1837e'
p46
sg10
(lp47
(dp48
g1
(lp49
(dp50
g4
g5
sasg6
S'response conflict'
p51
sg8
S'trm_557b49ad14adf'
p52
sg10
(lp53
sasa(dp54
g1
(lp55
(dp56
g4
g5
sasg6
S'speech processing'
p57
sg8
S'trm_4a3fd79d0b238'
p58
sg10
(lp59
(dp60
g1
(lp61
(dp62
g4
g5
sasg6
S'speech perception'
p63
sg8
S'trm_4a3fd79d0b1f7'
p64
sg10
(lp65
sasa(dp66
g1
(lp67
(dp68
g4
g5
sasg6
S'social cognition'
p69
sg8
S'trm_4a3fd79d0b13d'
p70
sg10
(lp71
(dp72
g1
(lp73
(dp74
g4
g5
sasg6
S'theory of mind'
p75
sg8
S'trm_4a3fd79d0b392'
p76
sg10
(lp77
(dp78
g1
(lp79
(dp80
g4
g5
sasg6
S'animacy perception'
p81
sg8
S'trm_5159beaf80413'
p82
sg10
(lp83
sasasa(dp84
g1
(lp85
(dp86
g4
g5
sasg6
S'skill'
p87
sg8
S'trm_4a3fd79d0b11a'
p88
sg10
(lp89
(dp90
g1
(lp91
(dp92
g4
g5
sasg6
S'quantitative skill'
p93
sg8
S'trm_4a3fd79d0aeaa'
p94
sg10
(lp95
sasa(dp96
g1
(lp97
(dp98
g4
g5
sasg6
S'search'
p99
sg8
S'trm_4a3fd79d0b037'
p100
sg10
(lp101
(dp102
g1
(lp103
(dp104
g4
g5
sasg6
S'visual search'
p105
sg8
S'trm_4a3fd79d0b4cd'
p106
sg10
(lp107
(dp108
g1
(lp109
(dp110
g4
g5
sasg6
S'feature search'
p111
sg8
S'trm_4fea18ec76bc9'
p112
sg10
(lp113
sa(dp114
g1
(lp115
(dp116
g4
g5
sasg6
S'conjunction search'
p117
sg8
S'trm_4a3fd79d09e1e'
p118
sg10
(lp119
sasa(dp120
g1
(lp121
(dp122
g4
g5
sasg6
S'serial search'
p123
sg8
S'trm_4a3fd79d0b0c8'
p124
sg10
(lp125
sasa(dp126
g1
(lp127
(dp128
g4
g5
sasg6
S'retrieval'
p129
sg8
S'trm_4a3fd79d0af94'
p130
sg10
(lp131
(dp132
g1
(lp133
(dp134
g4
g5
sasg6
S'phonological retrieval'
p135
sg8
S'trm_4a3fd79d0ac93'
p136
sg10
(lp137
sa(dp138
g1
(lp139
(dp140
g4
g5
sasg6
S'memory retrieval'
p141
sg8
S'trm_4a3fd79d0ba01'
p142
sg10
(lp143
sa(dp144
g1
(lp145
(dp146
g4
g5
sasg6
S'lexical retrieval'
p147
sg8
S'trm_4a3fd79d0a7e0'
p148
sg10
(lp149
sasa(dp150
g1
(lp151
(dp152
g4
g5
sasg6
S'response execution'
p153
sg8
S'trm_557b4a7315f1b'
p154
sg10
(lp155
(dp156
g1
(lp157
(dp158
g4
g5
sasg6
S'vocal response execution'
p159
sg8
S'trm_55ef3ba010121'
p160
sg10
(lp161
sa(dp162
g1
(lp163
(dp164
g4
g5
sasg6
S'tongue response execution'
p165
sg8
S'trm_55b6b98b88f45'
p166
sg10
(lp167
sa(dp168
g1
(lp169
(dp170
g4
g5
sasg6
S'right toe response execution'
p171
sg8
S'trm_55b6b952c1b4c'
p172
sg10
(lp173
sa(dp174
g1
(lp175
(dp176
g4
g5
sasg6
S'right hand response execution'
p177
sg8
S'trm_558c7b337080f'
p178
sg10
(lp179
sa(dp180
g1
(lp181
(dp182
g4
g5
sasg6
S'right finger response execution'
p183
sg8
S'trm_55b6b910b4b23'
p184
sg10
(lp185
sa(dp186
g1
(lp187
(dp188
g4
g5
sasg6
S'left toe response execution'
p189
sg8
S'trm_55b6b96e77df6'
p190
sg10
(lp191
sa(dp192
g1
(lp193
(dp194
g4
g5
sasg6
S'left hand response execution'
p195
sg8
S'trm_558c7b707f606'
p196
sg10
(lp197
sa(dp198
g1
(lp199
(dp200
g4
g5
sasg6
S'left finger response execution'
p201
sg8
S'trm_55b6b92c1fd76'
p202
sg10
(lp203
sasa(dp204
g1
(lp205
(dp206
g4
g5
sasg6
S'resource'
p207
sg8
S'trm_4f3a72a028d90'
p208
sg10
(lp209
(dp210
g1
(lp211
(dp212
g4
g5
sasg6
S'attentional resources'
p213
sg8
S'trm_4a3fd79d09925'
p214
sg10
(lp215
sasa(dp216
g1
(lp217
(dp218
g4
g5
sasg6
S'rehearsal loop'
p219
sg8
S'trm_4a3fd79d0ba60'
p220
sg10
(lp221
(dp222
g1
(lp223
(dp224
g4
g5
sasg6
S'phonological loop'
p225
sg8
S'trm_4a3fd79d0ba48'
p226
sg10
(lp227
sa(dp228
g1
(lp229
(dp230
g4
g5
sasg6
S'articulatory loop'
p231
sg8
S'trm_4a3fd79d0ba19'
p232
sg10
(lp233
sasa(dp234
g1
(lp235
(dp236
g4
g5
sasg6
S'rehearsal'
p237
sg8
S'trm_4a3fd79d0ba54'
p238
sg10
(lp239
(dp240
g1
(lp241
(dp242
g4
g5
sasg6
S'articulatory rehearsal'
p243
sg8
S'trm_4a3fd79d098a6'
p244
sg10
(lp245
sasa(dp246
g1
(lp247
(dp248
g4
g5
sasg6
S'planning'
p249
sg8
S'trm_4a3fd79d0acc1'
p250
sg10
(lp251
(dp252
g1
(lp253
(dp254
g4
g5
sasg6
S'prospective planning'
p255
sg8
S'trm_4a3fd79d0ae7b'
p256
sg10
(lp257
sa(dp258
g1
(lp259
(dp260
g4
g5
sasg6
S'discourse planning'
p261
sg8
S'trm_4a3fd79d0b6e9'
p262
sg10
(lp263
sasa(dp264
g1
(lp265
(dp266
g4
g5
sasg6
S'phonological processing'
p267
sg8
S'trm_52b5f1ef4f9cc'
p268
sg10
(lp269
(dp270
g1
(lp271
(dp272
g4
g5
sasg6
S'phonological working memory'
p273
sg8
S'trm_4a3fd79d0ac9e'
p274
sg10
(lp275
sa(dp276
g1
(lp277
(dp278
g4
g5
sasg6
S'phonological comparison'
p279
sg8
S'trm_558c73b3663a6'
p280
sg10
(lp281
sa(dp282
g1
(lp283
(dp284
g4
g5
sasg6
S'phonological assembly'
p285
sg8
S'trm_558c74156b7ee'
p286
sg10
(lp287
sasa(dp288
g1
(lp289
(dp290
g4
g5
sasg6
S'perception'
p291
sg8
S'trm_4a3fd79d0ab7c'
p292
sg10
(lp293
(dp294
g1
(lp295
(dp296
g4
g5
sasg6
S'visual perception'
p297
sg8
S'trm_4a3fd79d0b4b5'
p298
sg10
(lp299
(dp300
g1
(lp301
(dp302
g4
g5
sasg6
S'visual recognition'
p303
sg8
S'trm_557b4b7176394'
p304
sg10
(lp305
(dp306
g1
(lp307
(dp308
g4
g5
sasg6
S'visual sentence recognition'
p309
sg8
S'trm_558c7b5228ed4'
p310
sg10
(lp311
sa(dp312
g1
(lp313
(dp314
g4
g5
sasg6
S'visual place recognition'
p315
sg8
S'trm_557b4b7e68727'
p316
sg10
(lp317
sa(dp318
g1
(lp319
(dp320
g4
g5
sasg6
S'visual pattern recognition'
p321
sg8
S'trm_557b4b652cbec'
p322
sg10
(lp323
sa(dp324
g1
(lp325
(dp326
g4
g5
sasg6
S'visual object recognition'
p327
sg8
S'trm_4a3fd79d0b4a9'
p328
sg10
(lp329
(dp330
g1
(lp331
(dp332
g4
g5
sasg6
S'visual tool recognition'
p333
sg8
S'trm_557b4b8cd05ca'
p334
sg10
(lp335
sa(dp336
g1
(lp337
(dp338
g4
g5
sasg6
S'visual body recognition'
p339
sg8
S'trm_557b4af7cc1cb'
p340
sg10
(lp341
sa(dp342
g1
(lp343
(dp344
g4
g5
sasg6
S'reading'
p345
sg8
S'trm_4a3fd79d0aeb6'
p346
sg10
(lp347
sa(dp348
g1
(lp349
(dp350
g4
g5
sasg6
S'face recognition'
p351
sg8
S'trm_4a3fd79d0a30c'
p352
sg10
(lp353
(dp354
g1
(lp355
(dp356
g4
g5
sasg6
S'visual face recognition'
p357
sg8
S'trm_557b4b154e0d9'
p358
sg10
(lp359
(dp360
g1
(lp361
(dp362
g4
g5
sasg6
S'emotional face recognition'
p363
sg8
S'trm_557b482a7c62b'
p364
sg10
(lp365
sasasasa(dp366
g1
(lp367
(dp368
g4
g5
sasg6
S'visual form recognition'
p369
sg8
S'trm_557b4b3a6a34d'
p370
sg10
(lp371
(dp372
g1
(lp373
(dp374
g4
g5
sasg6
S'visual word recognition'
p375
sg8
S'trm_557b4b9ccdc4a'
p376
sg10
(lp377
(dp378
g1
(lp379
(dp380
g4
g5
sasg6
S'visual pseudoword recognition'
p381
sg8
S'trm_558c73f3c8c6f'
p382
sg10
(lp383
sasa(dp384
g1
(lp385
(dp386
g4
g5
sasg6
S'visual string recognition'
p387
sg8
S'trm_55ef1fd2bc418'
p388
sg10
(lp389
sa(dp390
g1
(lp391
(dp392
g4
g5
sasg6
S'visual number recognition'
p393
sg8
S'trm_557b4b47d994a'
p394
sg10
(lp395
sa(dp396
g1
(lp397
(dp398
g4
g5
sasg6
S'visual letter recognition'
p399
sg8
S'trm_558c7439832d9'
p400
sg10
(lp401
sasag354
a(dp402
g1
(lp403
(dp404
g4
g5
sasg6
S'color recognition'
p405
sg8
S'trm_557b478ce1c24'
p406
sg10
(lp407
sasa(dp408
g1
(lp409
(dp410
g4
g5
sasg6
S'visual orientation'
p411
sg8
S'trm_502ad54c11389'
p412
sg10
(lp413
sa(dp414
g1
(lp415
(dp416
g4
g5
sasg6
S'visual object detection'
p417
sg8
S'trm_557b4b56de455'
p418
sg10
(lp419
sag366
a(dp420
g1
(lp421
(dp422
g4
g5
sasg6
S'visual form discrimination'
p423
sg8
S'trm_557b4b27dfd5e'
p424
sg10
(lp425
sa(dp426
g1
(lp427
(dp428
g4
g5
sasg6
S'optical illusion'
p429
sg8
S'trm_4fb2c38960950'
p430
sg10
(lp431
(dp432
g1
(lp433
(dp434
g4
g5
sasg6
S'vection'
p435
sg8
S'trm_500d8aef38f2c'
p436
sg10
(lp437
sa(dp438
g1
(lp439
(dp440
g4
g5
sasg6
S'motion aftereffect'
p441
sg8
S'trm_4fea25630ffb5'
p442
sg10
(lp443
sa(dp444
g1
(lp445
(dp446
g4
g5
sasg6
S'apparent motion'
p447
sg8
S'trm_4a3fd79d09855'
p448
sg10
(lp449
sasa(dp450
g1
(lp451
(dp452
g4
g5
sasg6
S'multistable perception'
p453
sg8
S'trm_502abeab4e1d8'
p454
sg10
(lp455
g426
asag444
asa(dp456
g1
(lp457
(dp458
g4
g5
sasg6
S'visual awareness'
p459
sg8
S'trm_4ff36d79c26c6'
p460
sg10
(lp461
sag36
a(dp462
g1
(lp463
(dp464
g4
g5
sasg6
S'synchrony perception'
p465
sg8
S'trm_4e31e6dca01ca'
p466
sg10
(lp467
sa(dp468
g1
(lp469
(dp470
g4
g5
sasg6
S'somatosensation'
p471
sg8
S'trm_4a3fd79d0b160'
p472
sg10
(lp473
(dp474
g1
(lp475
(dp476
g4
g5
sasg6
S'thermosensation'
p477
sg8
S'trm_4a3fd79d0b39d'
p478
sg10
(lp479
sa(dp480
g1
(lp481
(dp482
g4
g5
sasg6
S'proprioception'
p483
sg8
S'trm_4a3fd79d0ae3d'
p484
sg10
(lp485
(dp486
g1
(lp487
(dp488
g4
g5
sasg6
S'body orientation'
p489
sg8
S'trm_4a3fd79d09be2'
p490
sg10
(lp491
sasa(dp492
g1
(lp493
(dp494
g4
g5
sasg6
S'pain'
p495
sg8
S'trm_4b65259eeee34'
p496
sg10
(lp497
sa(dp498
g1
(lp499
(dp500
g4
g5
sasg6
S'nociception'
p501
sg8
S'trm_4a3fd79d0aa0c'
p502
sg10
(lp503
g492
asa(dp504
g1
(lp505
(dp506
g4
g5
sasg6
S'kinesthesia'
p507
sg8
S'trm_4a3fd79d0a73a'
p508
sg10
(lp509
sa(dp510
g1
(lp511
(dp512
g4
g5
sasg6
S'interoception'
p513
sg8
S'trm_4fe39e4388409'
p514
sg10
(lp515
g498
asasa(dp516
g1
(lp517
(dp518
g4
g5
sasg6
S'olfactory perception'
p519
sg8
S'trm_4a3fd79d0aac8'
p520
sg10
(lp521
g450
asa(dp522
g1
(lp523
(dp524
g4
g5
sasg6
S'object perception'
p525
sg8
S'trm_4a3fd79d0aaa4'
p526
sg10
(lp527
sa(dp528
g1
(lp529
(dp530
g4
g5
sasg6
S'gustation processing'
p531
sg8
S'trm_4a3fd79d0b9e9'
p532
sg10
(lp533
(dp534
g1
(lp535
(dp536
g4
g5
sasg6
S'gustatory learning'
p537
sg8
S'trm_4a3fd79d0a460'
p538
sg10
(lp539
sasa(dp540
g1
(lp541
(dp542
g4
g5
sasg6
S'discrimination'
p543
sg8
S'trm_5519b7525d7a2'
p544
sg10
(lp545
g420
a(dp546
g1
(lp547
(dp548
g4
g5
sasg6
S'visual color discrimination'
p549
sg8
S'trm_557b4b05ae470'
p550
sg10
(lp551
sa(dp552
g1
(lp553
(dp554
g4
g5
sasg6
S'auditory tone discrimination'
p555
sg8
S'trm_557b476527a27'
p556
sg10
(lp557
sasa(dp558
g1
(lp559
(dp560
g4
g5
sasg6
S'detection'
p561
sg8
S'trm_55ce70b20186b'
p562
sg10
(lp563
(dp564
g1
(lp565
(dp566
g4
g5
sasg6
S'stimulus detection'
p567
sg8
S'trm_5519b80525e89'
p568
sg10
(lp569
(dp570
g1
(lp571
(dp572
g4
g5
sasg6
S'object detection'
p573
sg8
S'trm_4a3fd79d0aa76'
p574
sg10
(lp575
g414
asa(dp576
g1
(lp577
(dp578
g4
g5
sasg6
S'auditory tone detection'
p579
sg8
S'trm_557b474e2b578'
p580
sg10
(lp581
sasa(dp582
g1
(lp583
(dp584
g4
g5
sasg6
S'oddball detection'
p585
sg8
S'trm_557b491318742'
p586
sg10
(lp587
(dp588
g1
(lp589
(dp590
g4
g5
sasg6
S'novelty detection'
p591
sg8
S'trm_4a3fd79d0aa47'
p592
sg10
(lp593
sasa(dp594
g1
(lp595
(dp596
g4
g5
sasg6
S'motion detection'
p597
sg8
S'trm_557b48aeb7d58'
p598
sg10
(lp599
sa(dp600
g1
(lp601
(dp602
g4
g5
sasg6
S'feature detection'
p603
sg8
S'trm_4a3fd79d0b9ad'
p604
sg10
(lp605
(dp606
g1
(lp607
(dp608
g4
g5
sasg6
S'edge detection'
p609
sg8
S'trm_4a3fd79d0b9a1'
p610
sg10
(lp611
sa(dp612
g1
(lp613
(dp614
g4
g5
sasg6
S'border ownership'
p615
sg8
S'trm_502ab8dd991bf'
p616
sg10
(lp617
sasa(dp618
g1
(lp619
(dp620
g4
g5
sasg6
S'conflict detection'
p621
sg8
S'trm_4a3fd79d09e13'
p622
sg10
(lp623
sasa(dp624
g1
(lp625
(dp626
g4
g5
sasg6
S'depth perception'
p627
sg8
S'trm_4a3fd79d0a0a1'
p628
sg10
(lp629
sa(dp630
g1
(lp631
(dp632
g4
g5
sasg6
S'auditory perception'
p633
sg8
S'trm_4a3fd79d09ab2'
p634
sg10
(lp635
(dp636
g1
(lp637
(dp638
g4
g5
sasg6
S'tone recognition'
p639
sg8
S'trm_55b6b8b8e7870'
p640
sg10
(lp641
sag450
a(dp642
g1
(lp643
(dp644
g4
g5
sasg6
S'auditory tone perception'
p645
sg8
S'trm_55ef273a77a86'
p646
sg10
(lp647
sag552
ag576
a(dp648
g1
(lp649
(dp650
g4
g5
sasg6
S'acoustic phonetic processing'
p651
sg8
S'trm_4a3fd79d09713'
p652
sg10
(lp653
sasa(dp654
g1
(lp655
(dp656
g4
g5
sasg6
S'audiovisual perception'
p657
sg8
S'trm_4a3fd79d09953'
p658
sg10
(lp659
sag78
asa(dp660
g1
(lp661
(dp662
g4
g5
sasg6
S'obsession'
p663
sg8
S'trm_523e0419ec219'
p664
sg10
(lp665
(dp666
g1
(lp667
(dp668
g4
g5
sasg6
S'rigidity'
p669
sg8
S'trm_523e0a4b443dc'
p670
sg10
(lp671
sasa(dp672
g1
(lp673
(dp674
g4
g5
sasg6
S'motor control'
p675
sg8
S'trm_4a3fd79d0a972'
p676
sg10
(lp677
(dp678
g1
(lp679
(dp680
g4
g5
sasg6
S'Strength'
p681
sg8
S'trm_50eb5469ba37a'
p682
sg10
(lp683
sa(dp684
g1
(lp685
(dp686
g4
g5
sasg6
S'Locomotion'
p687
sg8
S'trm_50eb692db57eb'
p688
sg10
(lp689
sa(dp690
g1
(lp691
(dp692
g4
g5
sasg6
S'balance'
p693
sg8
S'trm_50eb56a7867db'
p694
sg10
(lp695
sasa(dp696
g1
(lp697
(dp698
g4
g5
sasg6
S'monitoring'
p699
sg8
S'trm_4a3fd79d0a94f'
p700
sg10
(lp701
(dp702
g1
(lp703
(dp704
g4
g5
sasg6
S'self monitoring'
p705
sg8
S'trm_4a3fd79d0b05e'
p706
sg10
(lp707
sasa(dp708
g1
(lp709
(dp710
g4
g5
sasg6
S'metacognition'
p711
sg8
S'trm_4a3fd79d0a920'
p712
sg10
(lp713
(dp714
g1
(lp715
(dp716
g4
g5
sasg6
S'metamemory'
p717
sg8
S'trm_4a3fd79d0b94f'
p718
sg10
(lp719
sasa(dp720
g1
(lp721
(dp722
g4
g5
sasg6
S'mental representation'
p723
sg8
S'trm_4a3fd79d0a908'
p724
sg10
(lp725
(dp726
g1
(lp727
(dp728
g4
g5
sasg6
S'visual representation'
p729
sg8
S'trm_4a3fd79d0b4c1'
p730
sg10
(lp731
sa(dp732
g1
(lp733
(dp734
g4
g5
sasg6
S'prototype'
p735
sg8
S'trm_4a3fd79d0ae87'
p736
sg10
(lp737
sa(dp738
g1
(lp739
(dp740
g4
g5
sasg6
S'object centered representation'
p741
sg8
S'trm_4a3fd79d0aa6a'
p742
sg10
(lp743
sa(dp744
g1
(lp745
(dp746
g4
g5
sasg6
S'imagination'
p747
sg8
S'trm_4f4511e519b53'
p748
sg10
(lp749
(dp750
g1
(lp751
(dp752
g4
g5
sasg6
S'mental imagery'
p753
sg8
S'trm_4a3fd79d0a8fc'
p754
sg10
(lp755
sasa(dp756
g1
(lp757
(dp758
g4
g5
sasg6
S'context representation'
p759
sg8
S'trm_56798c5f25b0c'
p760
sg10
(lp761
sa(dp762
g1
(lp763
(dp764
g4
g5
sasg6
S'amodal representation'
p765
sg8
S'trm_4a3fd79d097d6'
p766
sg10
(lp767
sag762
asa(dp768
g1
(lp769
(dp770
g4
g5
sasg6
S'memory'
p771
sg8
S'trm_4a3fd79d0a891'
p772
sg10
(lp773
(dp774
g1
(lp775
(dp776
g4
g5
sasg6
S'working memory'
p777
sg8
S'trm_4a3fd79d0b5a7'
p778
sg10
(lp779
(dp780
g1
(lp781
(dp782
g4
g5
sasg6
S'visual working memory'
p783
sg8
S'trm_4a3fd79d0b4d8'
p784
sg10
(lp785
(dp786
g1
(lp787
(dp788
g4
g5
sasg6
S'visual imagery'
p789
sg8
S'trm_4a3fd79d0b487'
p790
sg10
(lp791
sasa(dp792
g1
(lp793
(dp794
g4
g5
sasg6
S'tactile working memory'
p795
sg8
S'trm_4e416f1373936'
p796
sg10
(lp797
sa(dp798
g1
(lp799
(dp800
g4
g5
sasg6
S'spatial working memory'
p801
sg8
S'trm_4a3fd79d0b1e0'
p802
sg10
(lp803
sa(dp804
g1
(lp805
(dp806
g4
g5
sasg6
S'semantic working memory'
p807
sg8
S'trm_4a3fd79d0b08f'
p808
sg10
(lp809
sag270
a(dp810
g1
(lp811
(dp812
g4
g5
sasg6
S'auditory working memory'
p813
sg8
S'trm_4a3fd79d09b04'
p814
sg10
(lp815
sasa(dp816
g1
(lp817
(dp818
g4
g5
sasg6
S'visual memory'
p819
sg8
S'trm_4a3fd79d0b49e'
p820
sg10
(lp821
g780
a(dp822
g1
(lp823
(dp824
g4
g5
sasg6
S'iconic memory'
p825
sg8
S'trm_4a3fd79d0a4f9'
p826
sg10
(lp827
sasa(dp828
g1
(lp829
(dp830
g4
g5
sasg6
S'verbal memory'
p831
sg8
S'trm_4a3fd79d0b457'
p832
sg10
(lp833
sa(dp834
g1
(lp835
(dp836
g4
g5
sasg6
S'traumatic memory'
p837
sg8
S'trm_4a3fd79d0b3ef'
p838
sg10
(lp839
sa(dp840
g1
(lp841
(dp842
g4
g5
sasg6
S'spatial memory'
p843
sg8
S'trm_4a3fd79d0b1d5'
p844
sg10
(lp845
sa(dp846
g1
(lp847
(dp848
g4
g5
sasg6
S'short term memory'
p849
sg8
S'trm_4a3fd79d0b0f7'
p850
sg10
(lp851
sa(dp852
g1
(lp853
(dp854
g4
g5
sasg6
S'sensory memory'
p855
sg8
S'trm_4a3fd79d0b09a'
p856
sg10
(lp857
sa(dp858
g1
(lp859
(dp860
g4
g5
sasg6
S'repressed memory'
p861
sg8
S'trm_4a3fd79d0aeef'
p862
sg10
(lp863
sa(dp864
g1
(lp865
(dp866
g4
g5
sasg6
S'recognition'
p867
sg8
S'trm_4a3fd79d0b967'
p868
sg10
(lp869
(dp870
g1
(lp871
(dp872
g4
g5
sasg6
S'word recognition'
p873
sg8
S'trm_4a3fd79d0b58f'
p874
sg10
(lp875
g372
asag300
ag636
a(dp876
g1
(lp877
(dp878
g4
g5
sasg6
S'pattern recognition'
p879
sg8
S'trm_4a3fd79d0ab65'
p880
sg10
(lp881
g318
asa(dp882
g1
(lp883
(dp884
g4
g5
sasg6
S'object recognition'
p885
sg8
S'trm_4a3fd79d0aab0'
p886
sg10
(lp887
g324
a(dp888
g1
(lp889
(dp890
g4
g5
sasg6
S'shape recognition'
p891
sg8
S'trm_553967f006b70'
p892
sg10
(lp893
sa(dp894
g1
(lp895
(dp896
g4
g5
sasg6
S'high energy density food recognition'
p897
sg8
S'trm_55c298bbe56d5'
p898
sg10
(lp899
sasa(dp900
g1
(lp901
(dp902
g4
g5
sasg6
S'facial recognition'
p903
sg8
S'trm_5595bde6b2e95'
p904
sg10
(lp905
(dp906
g1
(lp907
(dp908
g4
g5
sasg6
S'facial trustworthiness recognition'
p909
sg8
S'trm_5595bda0c5dc3'
p910
sg10
(lp911
sa(dp912
g1
(lp913
(dp914
g4
g5
sasg6
S'facial happiness recognition'
p915
sg8
S'trm_5595bd2b92003'
p916
sg10
(lp917
sa(dp918
g1
(lp919
(dp920
g4
g5
sasg6
S'facial attractiveness recognition'
p921
sg8
S'trm_5595bd89d77c6'
p922
sg10
(lp923
sa(dp924
g1
(lp925
(dp926
g4
g5
sasg6
S'facial age recognition'
p927
sg8
S'trm_5595bd6c61d78'
p928
sg10
(lp929
sasag348
a(dp930
g1
(lp931
(dp932
g4
g5
sasg6
S'emotion recognition'
p933
sg8
S'trm_4a3fd79d0b665'
p934
sg10
(lp935
g912
ag360
asa(dp936
g1
(lp937
(dp938
g4
g5
sasg6
S'auditory recognition'
p939
sg8
S'trm_55ef687f48a9d'
p940
sg10
(lp941
(dp942
g1
(lp943
(dp944
g4
g5
sasg6
S'auditory word recognition'
p945
sg8
S'trm_4a3fd79d09af8'
p946
sg10
(lp947
sa(dp948
g1
(lp949
(dp950
g4
g5
sasg6
S'auditory sentence recognition'
p951
sg8
S'trm_558c7b14c076e'
p952
sg10
(lp953
sasasa(dp954
g1
(lp955
(dp956
g4
g5
sasg6
S'recall'
p957
sg8
S'trm_4a3fd79d0b95b'
p958
sg10
(lp959
(dp960
g1
(lp961
(dp962
g4
g5
sasg6
S'autobiographical recall'
p963
sg8
S'trm_4a3fd79d09b1c'
p964
sg10
(lp965
sasa(dp966
g1
(lp967
(dp968
g4
g5
sasg6
S'prospective memory'
p969
sg8
S'trm_4a3fd79d0ae70'
p970
sg10
(lp971
sa(dp972
g1
(lp973
(dp974
g4
g5
sasg6
S'primary memory'
p975
sg8
S'trm_4a3fd79d0ad94'
p976
sg10
(lp977
sa(dp978
g1
(lp979
(dp980
g4
g5
sasg6
S'long term memory'
p981
sg8
S'trm_4a3fd79d0a833'
p982
sg10
(lp983
(dp984
g1
(lp985
(dp986
g4
g5
sasg6
S'semantic knowledge'
p987
sg8
S'trm_4a3fd79d0b077'
p988
sg10
(lp989
sa(dp990
g1
(lp991
(dp992
g4
g5
sasg6
S'nondeclarative memory'
p993
sg8
S'trm_4a3fd79d0aa2f'
p994
sg10
(lp995
(dp996
g1
(lp997
(dp998
g4
g5
sasg6
S'procedural memory'
p999
sg8
S'trm_4a3fd79d0addc'
p1000
sg10
(lp1001
sasa(dp1002
g1
(lp1003
(dp1004
g4
g5
sasg6
S'declarative memory'
p1005
sg8
S'trm_4a3fd79d0a04f'
p1006
sg10
(lp1007
(dp1008
g1
(lp1009
(dp1010
g4
g5
sasg6
S'semantic memory'
p1011
sg8
S'trm_4a3fd79d0b083'
p1012
sg10
(lp1013
sa(dp1014
g1
(lp1015
(dp1016
g4
g5
sasg6
S'remote memory'
p1017
sg8
S'trm_4a3fd79d0aee4'
p1018
sg10
(lp1019
sa(dp1020
g1
(lp1021
(dp1022
g4
g5
sasg6
S'explicit memory'
p1023
sg8
S'trm_4a3fd79d0a281'
p1024
sg10
(lp1025
sa(dp1026
g1
(lp1027
(dp1028
g4
g5
sasg6
S'episodic memory'
p1029
sg8
S'trm_4a3fd79d0a1f4'
p1030
sg10
(lp1031
(dp1032
g1
(lp1033
(dp1034
g4
g5
sasg6
S'source memory'
p1035
sg8
S'trm_4a3fd79d0b18f'
p1036
sg10
(lp1037
sa(dp1038
g1
(lp1039
(dp1040
g4
g5
sasg6
S'autobiographical memory'
p1041
sg8
S'trm_4a3fd79d09b10'
p1042
sg10
(lp1043
sasasasa(dp1044
g1
(lp1045
(dp1046
g4
g5
sasg6
S'intermediate term memory'
p1047
sg8
S'trm_4a3fd79d0a6b9'
p1048
sg10
(lp1049
sa(dp1050
g1
(lp1051
(dp1052
g4
g5
sasg6
S'implicit memory'
p1053
sg8
S'trm_4a3fd79d0a533'
p1054
sg10
(lp1055
(dp1056
g1
(lp1057
(dp1058
g4
g5
sasg6
S'priming'
p1059
sg8
S'trm_4e89aebaa311d'
p1060
sg10
(lp1061
(dp1062
g1
(lp1063
(dp1064
g4
g5
sasg6
S'Semantic priming'
p1065
sg8
S'trm_5521a51034353'
p1066
sg10
(lp1067
sa(dp1068
g1
(lp1069
(dp1070
g4
g5
sasg6
S'Response priming'
p1071
sg8
S'trm_5521a663cd89c'
p1072
sg10
(lp1073
sa(dp1074
g1
(lp1075
(dp1076
g4
g5
sasg6
S'positive priming'
p1077
sg8
S'trm_5521a3da10349'
p1078
sg10
(lp1079
(dp1080
g1
(lp1081
(dp1082
g4
g5
sasg6
S'Repetition priming'
p1083
sg8
S'trm_5521a45a397a6'
p1084
sg10
(lp1085
sa(dp1086
g1
(lp1087
(dp1088
g4
g5
sasg6
S'kindness priming'
p1089
sg8
S'trm_5521a6bc4db33'
p1090
sg10
(lp1091
sasa(dp1092
g1
(lp1093
(dp1094
g4
g5
sasg6
S'perceptual priming'
p1095
sg8
S'trm_5519ba1746e95'
p1096
sg10
(lp1097
sa(dp1098
g1
(lp1099
(dp1100
g4
g5
sasg6
S'negative priming'
p1101
sg8
S'trm_5521a7a1376ed'
p1102
sg10
(lp1103
sag1086
a(dp1104
g1
(lp1105
(dp1106
g4
g5
sasg6
S'conceptual priming'
p1107
sg8
S'trm_5521a2aa5b127'
p1108
sg10
(lp1109
sa(dp1110
g1
(lp1111
(dp1112
g4
g5
sasg6
S'associative priming'
p1113
sg8
S'trm_5521a5f310604'
p1114
sg10
(lp1115
sasasa(dp1116
g1
(lp1117
(dp1118
g4
g5
sasg6
S'emotional memory'
p1119
sg8
S'trm_4a3fd79d0a1ae'
p1120
sg10
(lp1121
sag1002
a(dp1122
g1
(lp1123
(dp1124
g4
g5
sasg6
S'context memory'
p1125
sg8
S'trm_4a3fd79d09e87'
p1126
sg10
(lp1127
(dp1128
g1
(lp1129
(dp1130
g4
g5
sasg6
S'extinction'
p1131
sg8
S'trm_4fe8edc62f613'
p1132
sg10
(lp1133
sasa(dp1134
g1
(lp1135
(dp1136
g4
g5
sasg6
S'auditory memory'
p1137
sg8
S'trm_4a3fd79d09aa7'
p1138
sg10
(lp1139
(dp1140
g1
(lp1141
(dp1142
g4
g5
sasg6
S'echoic memory'
p1143
sg8
S'trm_4b185801de7a1'
p1144
sg10
(lp1145
sasasa(dp1146
g1
(lp1147
(dp1148
g4
g5
sasg6
S'maintenance'
p1149
sg8
S'trm_4a3fd79d0ba30'
p1150
sg10
(lp1151
(dp1152
g1
(lp1153
(dp1154
g4
g5
sasg6
S'working memory maintenance'
p1155
sg8
S'trm_55b6b9d7c9435'
p1156
sg10
(lp1157
(dp1158
g1
(lp1159
(dp1160
g4
g5
sasg6
S'word maintenance'
p1161
sg8
S'trm_557b4bb7cf05b'
p1162
sg10
(lp1163
sa(dp1164
g1
(lp1165
(dp1166
g4
g5
sasg6
S'tool maintenance'
p1167
sg8
S'trm_557b4aeaeb744'
p1168
sg10
(lp1169
sa(dp1170
g1
(lp1171
(dp1172
g4
g5
sasg6
S'string maintenance'
p1173
sg8
S'trm_557b4acdee820'
p1174
sg10
(lp1175
sa(dp1176
g1
(lp1177
(dp1178
g4
g5
sasg6
S'place maintenance'
p1179
sg8
S'trm_557b493133416'
p1180
sg10
(lp1181
sa(dp1182
g1
(lp1183
(dp1184
g4
g5
sasg6
S'pattern maintenance'
p1185
sg8
S'trm_557b49206928b'
p1186
sg10
(lp1187
sa(dp1188
g1
(lp1189
(dp1190
g4
g5
sasg6
S'face maintenance'
p1191
sg8
S'trm_55c6f87595b39'
p1192
sg10
(lp1193
sa(dp1194
g1
(lp1195
(dp1196
g4
g5
sasg6
S'body maintenance'
p1197
sg8
S'trm_557b477b4a15f'
p1198
sg10
(lp1199
sa(dp1200
g1
(lp1201
(dp1202
g4
g5
sasg6
S'active maintenance'
p1203
sg8
S'trm_4a3fd79d0ba0d'
p1204
sg10
(lp1205
sasa(dp1206
g1
(lp1207
(dp1208
g4
g5
sasg6
S'object maintenance'
p1209
sg8
S'trm_557b4904ee26d'
p1210
sg10
(lp1211
(dp1212
g1
(lp1213
(dp1214
g4
g5
sasg6
S'visual object maintenance'
p1215
sg8
S'trm_559f0986182cc'
p1216
sg10
(lp1217
sasa(dp1218
g1
(lp1219
(dp1220
g4
g5
sasg6
S'goal maintenance'
p1221
sg8
S'trm_4a3fd79d0a431'
p1222
sg10
(lp1223
sasa(dp1224
g1
(lp1225
(dp1226
g4
g5
sasg6
S'localization'
p1227
sg8
S'trm_5521a0512df9a'
p1228
sg10
(lp1229
(dp1230
g1
(lp1231
(dp1232
g4
g5
sasg6
S'visual localization'
p1233
sg8
S'trm_5519b92bde7dc'
p1234
sg10
(lp1235
sa(dp1236
g1
(lp1237
(dp1238
g4
g5
sasg6
S'spatial localization'
p1239
sg8
S'trm_5519bb7767d98'
p1240
sg10
(lp1241
sa(dp1242
g1
(lp1243
(dp1244
g4
g5
sasg6
S'auditory localization'
p1245
sg8
S'trm_4a3fd79d09a8f'
p1246
sg10
(lp1247
sasa(dp1248
g1
(lp1249
(dp1250
g4
g5
sasg6
S'lexicon'
p1251
sg8
S'trm_4a3fd79d0a7ec'
p1252
sg10
(lp1253
(dp1254
g1
(lp1255
(dp1256
g4
g5
sasg6
S'orthographic lexicon'
p1257
sg8
S'trm_4a3fd79d0aad4'
p1258
sg10
(lp1259
sasa(dp1260
g1
(lp1261
(dp1262
g4
g5
sasg6
S'lexical processing'
p1263
sg8
S'trm_4a3fd79d0b826'
p1264
sg10
(lp1265
g144
asa(dp1266
g1
(lp1267
(dp1268
g4
g5
sasg6
S'learning'
p1269
sg8
S'trm_4a3fd79d0a7bb'
p1270
sg10
(lp1271
(dp1272
g1
(lp1273
(dp1274
g4
g5
sasg6
S'sequence learning'
p1275
sg8
S'trm_4a3fd79d0b0a6'
p1276
sg10
(lp1277
(dp1278
g1
(lp1279
(dp1280
g4
g5
sasg6
S'motor sequence learning'
p1281
sg8
S'trm_4a3fd79d0a9b9'
p1282
sg10
(lp1283
sasa(dp1284
g1
(lp1285
(dp1286
g4
g5
sasg6
S'rule learning'
p1287
sg8
S'trm_4a3fd79d0affd'
p1288
sg10
(lp1289
sa(dp1290
g1
(lp1291
(dp1292
g4
g5
sasg6
S'reinforcement learning'
p1293
sg8
S'trm_557b4993a0fdd'
p1294
sg10
(lp1295
(dp1296
g1
(lp1297
(dp1298
g4
g5
sasg6
S'reward learning'
p1299
sg8
S'trm_5159cb12a0f92'
p1300
sg10
(lp1301
sasa(dp1302
g1
(lp1303
(dp1304
g4
g5
sasg6
S'implicit learning'
p1305
sg8
S'trm_565bce2791089'
p1306
sg10
(lp1307
(dp1308
g1
(lp1309
(dp1310
g4
g5
sasg6
S'skill acquisition'
p1311
sg8
S'trm_4a3fd79d0b125'
p1312
sg10
(lp1313
sa(dp1314
g1
(lp1315
(dp1316
g4
g5
sasg6
S'procedural learning'
p1317
sg8
S'trm_4a3fd79d0adcf'
p1318
sg10
(lp1319
sag1056
a(dp1320
g1
(lp1321
(dp1322
g4
g5
sasg6
S'perceptual learning'
p1323
sg8
S'trm_4a3fd79d0abb6'
p1324
sg10
(lp1325
sa(dp1326
g1
(lp1327
(dp1328
g4
g5
sasg6
S'incidental learning'
p1329
sg8
S'trm_4a3fd79d0a556'
p1330
sg10
(lp1331
sa(dp1332
g1
(lp1333
(dp1334
g4
g5
sasg6
S'association learning'
p1335
sg8
S'trm_4a3fd79d098c9'
p1336
sg10
(lp1337
(dp1338
g1
(lp1339
(dp1340
g4
g5
sasg6
S'pavlovian conditioning'
p1341
sg8
S'trm_4a3fd79d0ab70'
p1342
sg10
(lp1343
sasasag534
a(dp1344
g1
(lp1345
(dp1346
g4
g5
sasg6
S'explicit learning'
p1347
sg8
S'trm_4a3fd79d0a275'
p1348
sg10
(lp1349
(dp1350
g1
(lp1351
(dp1352
g4
g5
sasg6
S'serial learning'
p1353
sg8
S'trm_4a3fd79d0b0b1'
p1354
sg10
(lp1355
sa(dp1356
g1
(lp1357
(dp1358
g4
g5
sasg6
S'relational learning'
p1359
sg8
S'trm_4a3fd79d0aed8'
p1360
sg10
(lp1361
sa(dp1362
g1
(lp1363
(dp1364
g4
g5
sasg6
S'language learning'
p1365
sg8
S'trm_4a3fd79d0a781'
p1366
sg10
(lp1367
sa(dp1368
g1
(lp1369
(dp1370
g4
g5
sasg6
S'intentional learning'
p1371
sg8
S'trm_4a3fd79d0a695'
p1372
sg10
(lp1373
sa(dp1374
g1
(lp1375
(dp1376
g4
g5
sasg6
S'assimilation'
p1377
sg8
S'trm_4a3fd79d098b2'
p1378
sg10
(lp1379
sasasa(dp1380
g1
(lp1381
(dp1382
g4
g5
sasg6
S'language processing'
p1383
sg8
S'trm_4a3fd79d0b802'
p1384
sg10
(lp1385
(dp1386
g1
(lp1387
(dp1388
g4
g5
sasg6
S'sentence processing'
p1389
sg8
S'trm_4a3fd79d0b89e'
p1390
sg10
(lp1391
(dp1392
g1
(lp1393
(dp1394
g4
g5
sasg6
S'sentence recognition '
p1395
sg8
S'trm_568427366401c'
p1396
sg10
(lp1397
g306
ag948
asasa(dp1398
g1
(lp1399
(dp1400
g4
g5
sasg6
S'language comprehension'
p1401
sg8
S'trm_4a3fd79d0a775'
p1402
sg10
(lp1403
(dp1404
g1
(lp1405
(dp1406
g4
g5
sasg6
S'word comprehension'
p1407
sg8
S'trm_4a3fd79d0b548'
p1408
sg10
(lp1409
(dp1410
g1
(lp1411
(dp1412
g4
g5
sasg6
S'auditory word comprehension'
p1413
sg8
S'trm_4a3fd79d09aed'
p1414
sg10
(lp1415
sasa(dp1416
g1
(lp1417
(dp1418
g4
g5
sasg6
S'text comprehension'
p1419
sg8
S'trm_4a3fd79d0b37a'
p1420
sg10
(lp1421
sa(dp1422
g1
(lp1423
(dp1424
g4
g5
sasg6
S'story comprehension'
p1425
sg8
S'trm_55c6f58e77fbe'
p1426
sg10
(lp1427
sa(dp1428
g1
(lp1429
(dp1430
g4
g5
sasg6
S'sentence comprehension'
p1431
sg8
S'trm_4a3fd79d0b892'
p1432
sg10
(lp1433
(dp1434
g1
(lp1435
(dp1436
g4
g5
sasg6
S'auditory sentence comprehension'
p1437
sg8
S'trm_4a3fd79d09ad5'
p1438
sg10
(lp1439
sasa(dp1440
g1
(lp1441
(dp1442
g4
g5
sasg6
S'discourse comprehension'
p1443
sg8
S'trm_4a3fd79d0b6d1'
p1444
sg10
(lp1445
sasasa(dp1446
g1
(lp1447
(dp1448
g4
g5
sasg6
S'knowledge'
p1449
sg8
S'trm_4a3fd79d0a746'
p1450
sg10
(lp1451
(dp1452
g1
(lp1453
(dp1454
g4
g5
sasg6
S'route knowledge'
p1455
sg8
S'trm_4a3fd79d0afda'
p1456
sg10
(lp1457
sa(dp1458
g1
(lp1459
(dp1460
g4
g5
sasg6
S'procedural knowledge'
p1461
sg8
S'trm_4a3fd79d0adc3'
p1462
sg10
(lp1463
sa(dp1464
g1
(lp1465
(dp1466
g4
g5
sasg6
S'pragmatic knowledge'
p1467
sg8
S'trm_4a3fd79d0ad1d'
p1468
sg10
(lp1469
sa(dp1470
g1
(lp1471
(dp1472
g4
g5
sasg6
S'implicit knowledge'
p1473
sg8
S'trm_4a3fd79d0a51c'
p1474
sg10
(lp1475
sa(dp1476
g1
(lp1477
(dp1478
g4
g5
sasg6
S'explicit knowledge'
p1479
sg8
S'trm_4a3fd79d0a269'
p1480
sg10
(lp1481
sa(dp1482
g1
(lp1483
(dp1484
g4
g5
sasg6
S'discourse knowledge'
p1485
sg8
S'trm_4a3fd79d0b6dd'
p1486
sg10
(lp1487
sa(dp1488
g1
(lp1489
(dp1490
g4
g5
sasg6
S'declarative knowledge'
p1491
sg8
S'trm_4a3fd79d0a044'
p1492
sg10
(lp1493
(dp1494
g1
(lp1495
(dp1496
g4
g5
sasg6
S'declarative rule'
p1497
sg8
S'trm_4a3fd79d0a05b'
p1498
sg10
(lp1499
sasa(dp1500
g1
(lp1501
(dp1502
g4
g5
sasg6
S'categorical knowledge'
p1503
sg8
S'trm_4a3fd79d09c11'
p1504
sg10
(lp1505
sa(dp1506
g1
(lp1507
(dp1508
g4
g5
sasg6
S'abstract knowledge'
p1509
sg8
S'trm_4a3fd79d096f0'
p1510
sg10
(lp1511
sasa(dp1512
g1
(lp1513
(dp1514
g4
g5
sasg6
S'judgment'
p1515
sg8
S'trm_4a3fd79d0a723'
p1516
sg10
(lp1517
(dp1518
g1
(lp1519
(dp1520
g4
g5
sasg6
S'subjective value judgment'
p1521
sg8
S'trm_558c736199abd'
p1522
sg10
(lp1523
(dp1524
g1
(lp1525
(dp1526
g4
g5
sasg6
S'subjective food value'
p1527
sg8
S'trm_559f09a5cdca9'
p1528
sg10
(lp1529
sa(dp1530
g1
(lp1531
(dp1532
g4
g5
sasg6
S'intertemporal choice'
p1533
sg8
S'trm_558c73324a6ca'
p1534
sg10
(lp1535
sa(dp1536
g1
(lp1537
(dp1538
g4
g5
sasg6
S'economic value processing'
p1539
sg8
S'trm_557b4817db34d'
p1540
sg10
(lp1541
sa(dp1542
g1
(lp1543
(dp1544
g4
g5
sasg6
S'confidence judgment'
p1545
sg8
S'trm_55ef153d47bc0'
p1546
sg10
(lp1547
sasasa(dp1548
g1
(lp1549
(dp1550
g4
g5
sasg6
S'interference'
p1551
sg8
S'trm_4a3fd79d0a6ad'
p1552
sg10
(lp1553
(dp1554
g1
(lp1555
(dp1556
g4
g5
sasg6
S'retroactive interference'
p1557
sg8
S'trm_4a3fd79d0afab'
p1558
sg10
(lp1559
sasa(dp1560
g1
(lp1561
(dp1562
g4
g5
sasg6
S'inattention'
p1563
sg8
S'trm_4a3fd79d0a54b'
p1564
sg10
(lp1565
(dp1566
g1
(lp1567
(dp1568
g4
g5
sasg6
S'inattentional blindness'
p1569
sg8
S'trm_4fe3861edc919'
p1570
sg10
(lp1571
(dp1572
g1
(lp1573
(dp1574
g4
g5
sasg6
S'change blindness'
p1575
sg8
S'trm_4fea238758d33'
p1576
sg10
(lp1577
sasasa(dp1578
g1
(lp1579
(dp1580
g4
g5
sasg6
S'form perception'
p1581
sg8
S'trm_4a3fd79d0a398'
p1582
sg10
(lp1583
g366
ag420
asa(dp1584
g1
(lp1585
(dp1586
g4
g5
sasg6
S'forgetting'
p1587
sg8
S'trm_4a3fd79d0b908'
p1588
sg10
(lp1589
(dp1590
g1
(lp1591
(dp1592
g4
g5
sasg6
S'intentional forgetting'
p1593
sg8
S'trm_4a3fd79d0a689'
p1594
sg10
(lp1595
sa(dp1596
g1
(lp1597
(dp1598
g4
g5
sasg6
S'cue dependent forgetting'
p1599
sg8
S'trm_4a3fd79d09f70'
p1600
sg10
(lp1601
sasa(dp1602
g1
(lp1603
(dp1604
g4
g5
sasg6
S'fixation'
p1605
sg8
S'trm_4a3fd79d0a35e'
p1606
sg10
(lp1607
(dp1608
g1
(lp1609
(dp1610
g4
g5
sasg6
S'gaze'
p1611
sg8
S'trm_4a3fd79d0a3d2'
p1612
sg10
(lp1613
sasa(dp1614
g1
(lp1615
(dp1616
g4
g5
sasg6
S'feedback processing'
p1617
sg8
S'trm_4a3fd79d0a33b'
p1618
sg10
(lp1619
(dp1620
g1
(lp1621
(dp1622
g4
g5
sasg6
S'reward processing'
p1623
sg8
S'trm_4b6525253c63f'
p1624
sg10
(lp1625
sa(dp1626
g1
(lp1627
(dp1628
g4
g5
sasg6
S'positive feedback processing'
p1629
sg8
S'trm_557b493e4203a'
p1630
sg10
(lp1631
g1620
asa(dp1632
g1
(lp1633
(dp1634
g4
g5
sasg6
S'negative feedback processing'
p1635
sg8
S'trm_557b48e337218'
p1636
sg10
(lp1637
(dp1638
g1
(lp1639
(dp1640
g4
g5
sasg6
S'punishment processing'
p1641
sg8
S'trm_5534111a8bc96'
p1642
sg10
(lp1643
sasa(dp1644
g1
(lp1645
(dp1646
g4
g5
sasg6
S'auditory feedback'
p1647
sg8
S'trm_4a3fd79d09a55'
p1648
sg10
(lp1649
sasa(dp1650
g1
(lp1651
(dp1652
g4
g5
sasg6
S'face perception'
p1653
sg8
S'trm_4a3fd79d0a300'
p1654
sg10
(lp1655
g900
asa(dp1656
g1
(lp1657
(dp1658
g4
g5
sasg6
S'encoding'
p1659
sg8
S'trm_4a3fd79d0b8e5'
p1660
sg10
(lp1661
(dp1662
g1
(lp1663
(dp1664
g4
g5
sasg6
S'retention'
p1665
sg8
S'trm_4a3fd79d0af7d'
p1666
sg10
(lp1667
sa(dp1668
g1
(lp1669
(dp1670
g4
g5
sasg6
S'phonological encoding'
p1671
sg8
S'trm_4a3fd79d0ac87'
p1672
sg10
(lp1673
sag1668
a(dp1674
g1
(lp1675
(dp1676
g4
g5
sasg6
S'lexical encoding'
p1677
sg8
S'trm_4a3fd79d0a7d4'
p1678
sg10
(lp1679
sa(dp1680
g1
(lp1681
(dp1682
g4
g5
sasg6
S'grammatical encoding'
p1683
sg8
S'trm_4a3fd79d0b756'
p1684
sg10
(lp1685
sa(dp1686
g1
(lp1687
(dp1688
g4
g5
sasg6
S'auditory encoding'
p1689
sg8
S'trm_4a3fd79d09a49'
p1690
sg10
(lp1691
sa(dp1692
g1
(lp1693
(dp1694
g4
g5
sasg6
S'auditory coding'
p1695
sg8
S'trm_4a3fd79d09a3d'
p1696
sg10
(lp1697
sa(dp1698
g1
(lp1699
(dp1700
g4
g5
sasg6
S'analogical encoding'
p1701
sg8
S'trm_4a3fd79d097ed'
p1702
sg10
(lp1703
sa(dp1704
g1
(lp1705
(dp1706
g4
g5
sasg6
S'acoustic encoding'
p1707
sg8
S'trm_4a3fd79d09707'
p1708
sg10
(lp1709
sag1704
asa(dp1710
g1
(lp1711
(dp1712
g4
g5
sasg6
S'emotion'
p1713
sg8
S'trm_4a3fd79d0a17f'
p1714
sg10
(lp1715
(dp1716
g1
(lp1717
(dp1718
g4
g5
sasg6
S'surprise'
p1719
sg8
S'trm_4a3fd79d0b306'
p1720
sg10
(lp1721
sa(dp1722
g1
(lp1723
(dp1724
g4
g5
sasg6
S'shame'
p1725
sg8
S'trm_4a3fd79d0b0eb'
p1726
sg10
(lp1727
sa(dp1728
g1
(lp1729
(dp1730
g4
g5
sasg6
S'sadness'
p1731
sg8
S'trm_4a3fd79d0b014'
p1732
sg10
(lp1733
sa(dp1734
g1
(lp1735
(dp1736
g4
g5
sasg6
S'negative emotion'
p1737
sg8
S'trm_557b48d40d3cf'
p1738
sg10
(lp1739
g1728
a(dp1740
g1
(lp1741
(dp1742
g4
g5
sasg6
S'fear'
p1743
sg8
S'trm_4a3fd79d0b689'
p1744
sg10
(lp1745
(dp1746
g1
(lp1747
(dp1748
g4
g5
sasg6
S'social phobia'
p1749
sg8
S'trm_523e053844495'
p1750
sg10
(lp1751
sasasa(dp1752
g1
(lp1753
(dp1754
g4
g5
sasg6
S'anxiety'
p1755
sg8
S'trm_5022ef7599294'
p1756
sg10
(lp1757
sasa(dp1758
g1
(lp1759
(dp1760
g4
g5
sasg6
S'effort'
p1761
sg8
S'trm_4a3fd79d0a151'
p1762
sg10
(lp1763
(dp1764
g1
(lp1765
(dp1766
g4
g5
sasg6
S'cognitive effort'
p1767
sg8
S'trm_4a3fd79d09d4d'
p1768
sg10
(lp1769
sa(dp1770
g1
(lp1771
(dp1772
g4
g5
sasg6
S'attentional effort'
p1773
sg8
S'trm_4a3fd79d09919'
p1774
sg10
(lp1775
sasa(dp1776
g1
(lp1777
(dp1778
g4
g5
sasg6
S'decision making'
p1779
sg8
S'trm_4a3fd79d0a038'
p1780
sg10
(lp1781
(dp1782
g1
(lp1783
(dp1784
g4
g5
sasg6
S'reasoning'
p1785
sg8
S'trm_4a3fd79d0aec1'
p1786
sg10
(lp1787
(dp1788
g1
(lp1789
(dp1790
g4
g5
sasg6
S'problem solving'
p1791
sg8
S'trm_4a3fd79d0adb7'
p1792
sg10
(lp1793
sa(dp1794
g1
(lp1795
(dp1796
g4
g5
sasg6
S'pragmatic reasoning'
p1797
sg8
S'trm_4a3fd79d0ad29'
p1798
sg10
(lp1799
sa(dp1800
g1
(lp1801
(dp1802
g4
g5
sasg6
S'mechanical reasoning'
p1803
sg8
S'trm_4a3fd79d0a87a'
p1804
sg10
(lp1805
sa(dp1806
g1
(lp1807
(dp1808
g4
g5
sasg6
S'mathematical reasoning'
p1809
sg8
S'trm_4a3fd79d0a862'
p1810
sg10
(lp1811
sa(dp1812
g1
(lp1813
(dp1814
g4
g5
sasg6
S'logical reasoning'
p1815
sg8
S'trm_4a3fd79d0a81b'
p1816
sg10
(lp1817
sa(dp1818
g1
(lp1819
(dp1820
g4
g5
sasg6
S'inductive reasoning'
p1821
sg8
S'trm_4a3fd79d0a590'
p1822
sg10
(lp1823
sa(dp1824
g1
(lp1825
(dp1826
g4
g5
sasg6
S'deductive reasoning'
p1827
sg8
S'trm_4a3fd79d0a072'
p1828
sg10
(lp1829
sa(dp1830
g1
(lp1831
(dp1832
g4
g5
sasg6
S'conditional reasoning'
p1833
sg8
S'trm_4a3fd79d09e07'
p1834
sg10
(lp1835
sa(dp1836
g1
(lp1837
(dp1838
g4
g5
sasg6
S'analogical reasoning'
p1839
sg8
S'trm_4a3fd79d09810'
p1840
sg10
(lp1841
g1698
asa(dp1842
g1
(lp1843
(dp1844
g4
g5
sasg6
S'abductive reasoning'
p1845
sg8
S'trm_4a3fd79d096be'
p1846
sg10
(lp1847
sasag1530
a(dp1848
g1
(lp1849
(dp1850
g4
g5
sasg6
S'inference'
p1851
sg8
S'trm_4a3fd79d0a5ed'
p1852
sg10
(lp1853
(dp1854
g1
(lp1855
(dp1856
g4
g5
sasg6
S'social inference'
p1857
sg8
S'trm_5595be14a57c5'
p1858
sg10
(lp1859
g906
asa(dp1860
g1
(lp1861
(dp1862
g4
g5
sasg6
S'pragmatic inference'
p1863
sg8
S'trm_4a3fd79d0ad12'
p1864
sg10
(lp1865
sag1818
a(dp1866
g1
(lp1867
(dp1868
g4
g5
sasg6
S'generalization'
p1869
sg8
S'trm_4a3fd79d0a3ea'
p1870
sg10
(lp1871
sa(dp1872
g1
(lp1873
(dp1874
g4
g5
sasg6
S'deductive inference'
p1875
sg8
S'trm_4a3fd79d0a066'
p1876
sg10
(lp1877
sa(dp1878
g1
(lp1879
(dp1880
g4
g5
sasg6
S'causal inference'
p1881
sg8
S'trm_4a3fd79d09c5b'
p1882
sg10
(lp1883
sa(dp1884
g1
(lp1885
(dp1886
g4
g5
sasg6
S'analogy'
p1887
sg8
S'trm_4a3fd79d09827'
p1888
sg10
(lp1889
(dp1890
g1
(lp1891
(dp1892
g4
g5
sasg6
S'abstract analogy'
p1893
sg8
S'trm_4a3fd79d096e3'
p1894
sg10
(lp1895
sasa(dp1896
g1
(lp1897
(dp1898
g4
g5
sasg6
S'analogical inference'
p1899
sg8
S'trm_4a3fd79d097f9'
p1900
sg10
(lp1901
sasa(dp1902
g1
(lp1903
(dp1904
g4
g5
sasg6
S'feature comparison'
p1905
sg8
S'trm_557b4891e9265'
p1906
sg10
(lp1907
(dp1908
g1
(lp1909
(dp1910
g4
g5
sasg6
S'relational comparison'
p1911
sg8
S'trm_555cfb890d721'
p1912
sg10
(lp1913
g276
a(dp1914
g1
(lp1915
(dp1916
g4
g5
sasg6
S'numerical comparison'
p1917
sg8
S'trm_5678a999f1c19'
p1918
sg10
(lp1919
sasasa(dp1920
g1
(lp1921
(dp1922
g4
g5
sasg6
S'emotional decision making'
p1923
sg8
S'trm_4a3fd79d0a18b'
p1924
sg10
(lp1925
sa(dp1926
g1
(lp1927
(dp1928
g4
g5
sasg6
S'categorization'
p1929
sg8
S'trm_4a3fd79d09c28'
p1930
sg10
(lp1931
(dp1932
g1
(lp1933
(dp1934
g4
g5
sasg6
S'semantic categorization'
p1935
sg8
S'trm_557b4ab076338'
p1936
sg10
(lp1937
sasa(dp1938
g1
(lp1939
(dp1940
g4
g5
sasg6
S'animacy decision'
p1941
sg8
S'trm_557b471bc6cd8'
p1942
sg10
(lp1943
sasa(dp1944
g1
(lp1945
(dp1946
g4
g5
sasg6
S'decision'
p1947
sg8
S'trm_4a3fd79d0b61f'
p1948
sg10
(lp1949
(dp1950
g1
(lp1951
(dp1952
g4
g5
sasg6
S'decision under uncertainty'
p1953
sg8
S'trm_567982752ff4a'
p1954
sg10
(lp1955
sasa(dp1956
g1
(lp1957
(dp1958
g4
g5
sasg6
S'consolidation'
p1959
sg8
S'trm_4a3fd79d0b8cd'
p1960
sg10
(lp1961
(dp1962
g1
(lp1963
(dp1964
g4
g5
sasg6
S'memory consolidation'
p1965
sg8
S'trm_4a3fd79d0b920'
p1966
sg10
(lp1967
(dp1968
g1
(lp1969
(dp1970
g4
g5
sasg6
S'reconsolidation'
p1971
sg8
S'trm_4a3fd79d0b972'
p1972
sg10
(lp1973
sasasa(dp1974
g1
(lp1975
(dp1976
g4
g5
sasg6
S'consciousness'
p1977
sg8
S'trm_4a3fd79d09e35'
p1978
sg10
(lp1979
(dp1980
g1
(lp1981
(dp1982
g4
g5
sasg6
S'noesis'
p1983
sg8
S'trm_4ffdc96dc85b7'
p1984
sg10
(lp1985
sa(dp1986
g1
(lp1987
(dp1988
g4
g5
sasg6
S'autonoesis'
p1989
sg8
S'trm_4ff1fc04e22e8'
p1990
sg10
(lp1991
sasa(dp1992
g1
(lp1993
(dp1994
g4
g5
sasg6
S'color perception'
p1995
sg8
S'trm_4a3fd79d09d93'
p1996
sg10
(lp1997
g546
ag402
asa(dp1998
g1
(lp1999
(dp2000
g4
g5
sasg6
S'cognitive heuristic'
p2001
sg8
S'trm_4a3fd79d09d58'
p2002
sg10
(lp2003
(dp2004
g1
(lp2005
(dp2006
g4
g5
sasg6
S'availability heuristic'
p2007
sg8
S'trm_4a3fd79d09b33'
p2008
sg10
(lp2009
sa(dp2010
g1
(lp2011
(dp2012
g4
g5
sasg6
S'anchoring'
p2013
sg8
S'trm_4a3fd79d09833'
p2014
sg10
(lp2015
sasa(dp2016
g1
(lp2017
(dp2018
g4
g5
sasg6
S'cognitive control'
p2019
sg8
S'trm_4aae62e4ad209'
p2020
sg10
(lp2021
(dp2022
g1
(lp2023
(dp2024
g4
g5
sasg6
S'updating'
p2025
sg8
S'trm_4c3e05903e4bb'
p2026
sg10
(lp2027
(dp2028
g1
(lp2029
(dp2030
g4
g5
sasg6
S'working memory updating'
p2031
sg8
S'trm_55b6b9a666604'
p2032
sg10
(lp2033
sasa(dp2034
g1
(lp2035
(dp2036
g4
g5
sasg6
S'task switching'
p2037
sg8
S'trm_4a3fd79d0b613'
p2038
sg10
(lp2039
(dp2040
g1
(lp2041
(dp2042
g4
g5
sasg6
S'set shifting'
p2043
sg8
S'trm_4a3fd79d0b607'
p2044
sg10
(lp2045
sasa(dp2046
g1
(lp2047
(dp2048
g4
g5
sasg6
S'self control'
p2049
sg8
S'trm_4ee8facd77dfc'
p2050
sg10
(lp2051
(dp2052
g1
(lp2053
(dp2054
g4
g5
sasg6
S'emotion regulation'
p2055
sg8
S'trm_51a690a7492eb'
p2056
sg10
(lp2057
(dp2058
g1
(lp2059
(dp2060
g4
g5
sasg6
S'emotional suppression'
p2061
sg8
S'trm_4a3fd79d0a1d1'
p2062
sg10
(lp2063
sa(dp2064
g1
(lp2065
(dp2066
g4
g5
sasg6
S'emotional reappraisal'
p2067
sg8
S'trm_557b4844ca14d'
p2068
sg10
(lp2069
(dp2070
g1
(lp2071
(dp2072
g4
g5
sasg6
S'emotional enhancement'
p2073
sg8
S'trm_5679b0e9d8c20'
p2074
sg10
(lp2075
sasag2070
asa(dp2076
g1
(lp2077
(dp2078
g4
g5
sasg6
S'behavioral inhibition'
p2079
sg8
S'trm_4a3fd79d09b79'
p2080
sg10
(lp2081
sasa(dp2082
g1
(lp2083
(dp2084
g4
g5
sasg6
S'selective control'
p2085
sg8
S'trm_557b4aa070c10'
p2086
sg10
(lp2087
sa(dp2088
g1
(lp2089
(dp2090
g4
g5
sasg6
S'proactive control'
p2091
sg8
S'trm_557b49851e991'
p2092
sg10
(lp2093
sa(dp2094
g1
(lp2095
(dp2096
g4
g5
sasg6
S'performance monitoring'
p2097
sg8
S'trm_4a3fd79d0ac30'
p2098
sg10
(lp2099
sa(dp2100
g1
(lp2101
(dp2102
g4
g5
sasg6
S'interference resolution'
p2103
sg8
S'trm_4c3e04d656f06'
p2104
sg10
(lp2105
(dp2106
g1
(lp2107
(dp2108
g4
g5
sasg6
S'resistance to distractor inference'
p2109
sg8
S'trm_557b499fac085'
p2110
sg10
(lp2111
sasa(dp2112
g1
(lp2113
(dp2114
g4
g5
sasg6
S'inhibition'
p2115
sg8
S'trm_4a3fd79d0a613'
p2116
sg10
(lp2117
(dp2118
g1
(lp2119
(dp2120
g4
g5
sasg6
S'response inhibition'
p2121
sg8
S'trm_4a3fd79d0af66'
p2122
sg10
(lp2123
sasa(dp2124
g1
(lp2125
(dp2126
g4
g5
sasg6
S'goal selection'
p2127
sg8
S'trm_5519b5f181edd'
p2128
sg10
(lp2129
sasa(dp2130
g1
(lp2131
(dp2132
g4
g5
sasg6
S'body representation'
p2133
sg8
S'trm_4e5505361f160'
p2134
sg10
(lp2135
(dp2136
g1
(lp2137
(dp2138
g4
g5
sasg6
S'sense of ownership'
p2139
sg8
S'trm_4e5badf095692'
p2140
sg10
(lp2141
(dp2142
g1
(lp2143
(dp2144
g4
g5
sasg6
S'sense of body ownership'
p2145
sg8
S'trm_4e5faabfe8ce3'
p2146
sg10
(lp2147
sasa(dp2148
g1
(lp2149
(dp2150
g4
g5
sasg6
S'kinaesthetic representation'
p2151
sg8
S'trm_4a3fd79d0a72e'
p2152
sg10
(lp2153
sa(dp2154
g1
(lp2155
(dp2156
g4
g5
sasg6
S'interoceptive representation'
p2157
sg8
S'trm_4e5506161998c'
p2158
sg10
(lp2159
sasa(dp2160
g1
(lp2161
(dp2162
g4
g5
sasg6
S'binocular depth cue'
p2163
sg8
S'trm_4fea04a02ce37'
p2164
sg10
(lp2165
(dp2166
g1
(lp2167
(dp2168
g4
g5
sasg6
S'stereopsis'
p2169
sg8
S'trm_4a3fd79d0b279'
p2170
sg10
(lp2171
sa(dp2172
g1
(lp2173
(dp2174
g4
g5
sasg6
S'binocular convergence'
p2175
sg8
S'trm_4a3fd79d09b9c'
p2176
sg10
(lp2177
sasa(dp2178
g1
(lp2179
(dp2180
g4
g5
sasg6
S'attention'
p2181
sg8
S'trm_4a3fd79d09902'
p2182
sg10
(lp2183
(dp2184
g1
(lp2185
(dp2186
g4
g5
sasg6
S'visual attention'
p2187
sg8
S'trm_4a3fd79d0b46f'
p2188
sg10
(lp2189
(dp2190
g1
(lp2191
(dp2192
g4
g5
sasg6
S'spatial attention'
p2193
sg8
S'trm_4a3fd79d0b1b2'
p2194
sg10
(lp2195
(dp2196
g1
(lp2197
(dp2198
g4
g5
sasg6
S'spatial selective attention'
p2199
sg8
S'trm_557b4abe521af'
p2200
sg10
(lp2201
sasasa(dp2202
g1
(lp2203
(dp2204
g4
g5
sasg6
S'sustained attention'
p2205
sg8
S'trm_4a3fd79d0b311'
p2206
sg10
(lp2207
sa(dp2208
g1
(lp2209
(dp2210
g4
g5
sasg6
S'selective attention'
p2211
sg8
S'trm_4a3fd79d0b043'
p2212
sg10
(lp2213
g2196
asa(dp2214
g1
(lp2215
(dp2216
g4
g5
sasg6
S'passive attention'
p2217
sg8
S'trm_4a3fd79d0ab4d'
p2218
sg10
(lp2219
sa(dp2220
g1
(lp2221
(dp2222
g4
g5
sasg6
S'overt attention'
p2223
sg8
S'trm_4feb3f8c551cb'
p2224
sg10
(lp2225
sa(dp2226
g1
(lp2227
(dp2228
g4
g5
sasg6
S'exogenous attention'
p2229
sg8
S'trm_56006cb5a61ac'
p2230
sg10
(lp2231
sa(dp2232
g1
(lp2233
(dp2234
g4
g5
sasg6
S'divided attention'
p2235
sg8
S'trm_4a3fd79d0a116'
p2236
sg10
(lp2237
sa(dp2238
g1
(lp2239
(dp2240
g4
g5
sasg6
S'covert attention'
p2241
sg8
S'trm_4feb3ffa1ab51'
p2242
sg10
(lp2243
sa(dp2244
g1
(lp2245
(dp2246
g4
g5
sasg6
S'auditory attention'
p2247
sg8
S'trm_4a3fd79d09a10'
p2248
sg10
(lp2249
(dp2250
g1
(lp2251
(dp2252
g4
g5
sasg6
S'listening'
p2253
sg8
S'trm_4a3fd79d0a803'
p2254
sg10
(lp2255
sasasa(dp2256
g1
(lp2257
(dp2258
g4
g5
sasg6
S'arithmetic processing'
p2259
sg8
S'trm_558c7ae1eaf86'
p2260
sg10
(lp2261
(dp2262
g1
(lp2263
(dp2264
g4
g5
sasg6
S'auditory arithmetic processing'
p2265
sg8
S'trm_55b6b8e291dba'
p2266
sg10
(lp2267
sasa(dp2268
g1
(lp2269
(dp2270
g4
g5
sasg6
S'anticipation'
p2271
sg8
S'trm_4a3fd79d09849'
p2272
sg10
(lp2273
(dp2274
g1
(lp2275
(dp2276
g4
g5
sasg6
S'reward anticipation'
p2277
sg8
S'trm_557b4a81a4a17'
p2278
sg10
(lp2279
(dp2280
g1
(lp2281
(dp2282
g4
g5
sasg6
S'potential monetary reward'
p2283
sg8
S'trm_557b495cdde57'
p2284
sg10
(lp2285
sasa(dp2286
g1
(lp2287
(dp2288
g4
g5
sasg6
S'loss anticipation'
p2289
sg8
S'trm_557b48a224b95'
p2290
sg10
(lp2291
(dp2292
g1
(lp2293
(dp2294
g4
g5
sasg6
S'potential monetary loss'
p2295
sg8
S'trm_557b494ca540d'
p2296
sg10
(lp2297
sasasas.